target datalayout = "e-m:e-p270:32:32-p271:32:32-p272:64:64-i64:64-i128:128-f80:128-n8:16:32:64-S128"
target triple = "x86_64-pc-linux-gnu"

%"class.arrow::Status" = type { ptr }
%"struct.arrow::internal::(anonymous namespace)::ValidateArrayImpl" = type <{ ptr, i8, [7 x i8] }>

; Function Attrs: mustprogress uwtable
define void @_ZN5arrow8internal17ValidateArrayFullERKNS_9ArrayDataE(ptr dead_on_unwind noalias writable sret(%"class.arrow::Status") align 8 %0, ptr noundef nonnull align 8 dereferenceable(120) %1) #1 {
  %3 = alloca ptr, align 8
  %4 = alloca ptr, align 8
  %5 = alloca %"struct.arrow::internal::(anonymous namespace)::ValidateArrayImpl", align 8
  store ptr %0, ptr %3, align 8
  store ptr %1, ptr %4, align 8, !tbaa !53
  call void @llvm.lifetime.start.p0(i64 16, ptr %5) #19
  %6 = getelementptr inbounds nuw %"struct.arrow::internal::(anonymous namespace)::ValidateArrayImpl", ptr %5, i32 0, i32 0
  %7 = load ptr, ptr %4, align 8, !tbaa !53
  store ptr %7, ptr %6, align 8, !tbaa !53
  %8 = getelementptr inbounds nuw %"struct.arrow::internal::(anonymous namespace)::ValidateArrayImpl", ptr %5, i32 0, i32 1
  store i8 1, ptr %8, align 8, !tbaa !55
  call void @_ZN5arrow8internal12_GLOBAL__N_117ValidateArrayImpl8ValidateEv(ptr dead_on_unwind writable sret(%"class.arrow::Status") align 8 %0, ptr noundef nonnull align 8 dereferenceable(9) %5)
  call void @llvm.lifetime.end.p0(i64 16, ptr %5) #19
  ret void
}