; Function Attrs: mustprogress uwtable
define void @_ZN5arrow8internal17ValidateArrayFullERKNS_9ArrayDataE(ptr dead_on_unwind noalias writable sret(%"class.arrow::Status") align 8 %0, ptr noundef nonnull align 8 dereferenceable(120) %1) local_unnamed_addr #1 {
  %3 = alloca %"struct.arrow::internal::(anonymous namespace)::ValidateArrayImpl", align 8
  call void @llvm.lifetime.start.p0(i64 16, ptr nonnull %3) #21
  store ptr %1, ptr %3, align 8, !tbaa !32
  %4 = getelementptr inbounds nuw i8, ptr %3, i64 8
  store i8 1, ptr %4, align 8, !tbaa !35
  call fastcc void @_ZN5arrow8internal12_GLOBAL__N_117ValidateArrayImpl8ValidateEv(ptr dead_on_unwind noalias writable align 8 %0, ptr noundef nonnull align 8 dereferenceable(9) %3)
  call void @llvm.lifetime.end.p0(i64 16, ptr nonnull %3) #21
  ret void
}